target datalayout = "e-m:e-p270:32:32-p271:32:32-p272:64:64-i64:64-i128:128-f80:128-n8:16:32:64-S128"
target triple = "x86_64-pc-linux-gnu"

@ossl_to_hex.hexdig = internal constant [17 x i8] c"0123456789ABCDEF\00", align 16

; Function Attrs: inlinehint nounwind uwtable
define internal i64 @to_hex(ptr noundef %0, i8 noundef zeroext %1, ptr noundef %2) #7 {
  %4 = alloca ptr, align 8
  %5 = alloca i8, align 1
  %6 = alloca ptr, align 8
  store ptr %0, ptr %4, align 8, !tbaa !3
  store i8 %1, ptr %5, align 1, !tbaa !12
  store ptr %2, ptr %6, align 8, !tbaa !3
  %7 = load ptr, ptr %6, align 8, !tbaa !3
  %8 = load i8, ptr %5, align 1, !tbaa !12
  %9 = zext i8 %8 to i32
  %10 = ashr i32 %9, 4
  %11 = and i32 %10, 15
  %12 = sext i32 %11 to i64
  %13 = getelementptr inbounds i8, ptr %7, i64 %12
  %14 = load i8, ptr %13, align 1, !tbaa !12
  %15 = load ptr, ptr %4, align 8, !tbaa !3
  %16 = getelementptr inbounds nuw i8, ptr %15, i32 1
  store ptr %16, ptr %4, align 8, !tbaa !3
  store i8 %14, ptr %15, align 1, !tbaa !12
  %17 = load ptr, ptr %6, align 8, !tbaa !3
  %18 = load i8, ptr %5, align 1, !tbaa !12
  %19 = zext i8 %18 to i32
  %20 = and i32 %19, 15
  %21 = sext i32 %20 to i64
  %22 = getelementptr inbounds i8, ptr %17, i64 %21
  %23 = load i8, ptr %22, align 1, !tbaa !12
  %24 = load ptr, ptr %4, align 8, !tbaa !3
  store i8 %23, ptr %24, align 1, !tbaa !12
  ret i64 2
}

; Function Attrs: nounwind uwtable
define i64 @ossl_to_hex(ptr noundef %0, i8 noundef zeroext %1) #0 {
  %3 = alloca ptr, align 8
  %4 = alloca i8, align 1
  store ptr %0, ptr %3, align 8, !tbaa !3
  store i8 %1, ptr %4, align 1, !tbaa !12
  %5 = load ptr, ptr %3, align 8, !tbaa !3
  %6 = load i8, ptr %4, align 1, !tbaa !12
  %7 = call i64 @to_hex(ptr noundef %5, i8 noundef zeroext %6, ptr noundef @ossl_to_hex.hexdig)
  ret i64 %7
}