; Function Attrs: mustprogress nofree norecurse nosync nounwind willreturn memory(argmem: write) uwtable
define noundef i64 @ossl_to_hex(ptr noundef writeonly captures(none) initializes((0, 2)) %0, i8 noundef zeroext %1) local_unnamed_addr #13 {
  %3 = zext i8 %1 to i32
  %4 = lshr i32 %3, 4
  %5 = zext nneg i32 %4 to i64
  %6 = getelementptr inbounds nuw i8, ptr @ossl_to_hex.hexdig, i64 %5
  %7 = load i8, ptr %6, align 1, !tbaa !3
  %8 = getelementptr inbounds nuw i8, ptr %0, i64 1
  store i8 %7, ptr %0, align 1, !tbaa !3
  %9 = and i32 %3, 15
  %10 = zext nneg i32 %9 to i64
  %11 = getelementptr inbounds nuw i8, ptr @ossl_to_hex.hexdig, i64 %10
  %12 = load i8, ptr %11, align 1, !tbaa !3
  store i8 %12, ptr %8, align 1, !tbaa !3
  ret i64 2
}